target datalayout = "e-m:e-p270:32:32-p271:32:32-p272:64:64-i64:64-i128:128-f80:128-n8:16:32:64-S128"
target triple = "x86_64-unknown-linux-gnu"

%"class.cvc5::internal::NodeBuilder" = type <{ %"class.cvc5::internal::expr::NodeValue", [10 x ptr], ptr, ptr, i32, [4 x i8] }>
%"class.cvc5::internal::expr::NodeValue" = type { i64, i16, i32, [0 x ptr] }
%"class.cvc5::internal::NodeTemplate" = type { ptr }
%"class.cvc5::internal::NodeTemplate.0" = type { ptr }

; Function Attrs: mustprogress uwtable
define linkonce_odr hidden void @_ZN4cvc58internal4expr9NodeValue3incEv(ptr noundef nonnull align 8 dereferenceable(16) %this) #4 comdat align 2 {
entry:
  %this.addr = alloca ptr, align 8
  store ptr %this, ptr %this.addr, align 8
  %this1 = load ptr, ptr %this.addr, align 8
  %bf.load = load i64, ptr %this1, align 8
  %bf.lshr = lshr i64 %bf.load, 40
  %bf.clear = and i64 %bf.lshr, 1048575
  %bf.cast = trunc i64 %bf.clear to i32
  %cmp = icmp ult i32 %bf.cast, 1048574
  br i1 %cmp, label %if.then, label %if.else

if.then:                                          ; preds = %entry
  %bf.load2 = load i64, ptr %this1, align 8
  %bf.lshr3 = lshr i64 %bf.load2, 40
  %bf.clear4 = and i64 %bf.lshr3, 1048575
  %bf.cast5 = trunc i64 %bf.clear4 to i32
  %inc = add i32 %bf.cast5, 1
  %0 = zext i32 %inc to i64
  %bf.load6 = load i64, ptr %this1, align 8
  %bf.value = and i64 %0, 1048575
  %bf.shl = shl i64 %bf.value, 40
  %bf.clear7 = and i64 %bf.load6, -1152920405095219201
  %bf.set = or i64 %bf.clear7, %bf.shl
  store i64 %bf.set, ptr %this1, align 8
  br label %if.end25

if.else:                                          ; preds = %entry
  %bf.load8 = load i64, ptr %this1, align 8
  %bf.lshr9 = lshr i64 %bf.load8, 40
  %bf.clear10 = and i64 %bf.lshr9, 1048575
  %bf.cast11 = trunc i64 %bf.clear10 to i32
  %cmp12 = icmp eq i32 %bf.cast11, 1048574
  br i1 %cmp12, label %if.then13, label %if.end

if.then13:                                        ; preds = %if.else
  %bf.load14 = load i64, ptr %this1, align 8
  %bf.lshr15 = lshr i64 %bf.load14, 40
  %bf.clear16 = and i64 %bf.lshr15, 1048575
  %bf.cast17 = trunc i64 %bf.clear16 to i32
  %inc18 = add i32 %bf.cast17, 1
  %1 = zext i32 %inc18 to i64
  %bf.load19 = load i64, ptr %this1, align 8
  %bf.value20 = and i64 %1, 1048575
  %bf.shl21 = shl i64 %bf.value20, 40
  %bf.clear22 = and i64 %bf.load19, -1152920405095219201
  %bf.set23 = or i64 %bf.clear22, %bf.shl21
  store i64 %bf.set23, ptr %this1, align 8
  call void @_ZN4cvc58internal4expr9NodeValue20markRefCountMaxedOutEv(ptr noundef nonnull align 8 dereferenceable(16) %this1)
  br label %if.end

if.end:                                           ; preds = %if.then13, %if.else
  br label %if.end25

if.end25:                                         ; preds = %if.end, %if.then
  ret void
}

; Function Attrs: mustprogress nounwind uwtable
define linkonce_odr hidden void @_ZNK4cvc58internal11NodeBuilder14maybeCheckTypeENS0_12NodeTemplateILb0EEE(ptr noundef nonnull align 8 dereferenceable(116) %this, ptr noundef %n) #5 comdat align 2 {
entry:
  %this.addr = alloca ptr, align 8
  %n.indirect_addr = alloca ptr, align 8
  store ptr %this, ptr %this.addr, align 8
  store ptr %n, ptr %n.indirect_addr, align 8
  ret void
}

; Function Attrs: mustprogress uwtable
define linkonce_odr hidden void @_ZN4cvc58internal12NodeTemplateILb1EEC2EPKNS0_4expr9NodeValueE(ptr noundef nonnull align 8 dereferenceable(8) %this, ptr noundef %ev) unnamed_addr #4 comdat align 2 {
entry:
  %this.addr = alloca ptr, align 8
  %ev.addr = alloca ptr, align 8
  store ptr %this, ptr %this.addr, align 8
  store ptr %ev, ptr %ev.addr, align 8
  %this1 = load ptr, ptr %this.addr, align 8
  %d_nv = getelementptr inbounds %"class.cvc5::internal::NodeTemplate", ptr %this1, i32 0, i32 0
  %0 = load ptr, ptr %ev.addr, align 8
  store ptr %0, ptr %d_nv, align 8
  %d_nv2 = getelementptr inbounds %"class.cvc5::internal::NodeTemplate", ptr %this1, i32 0, i32 0
  %1 = load ptr, ptr %d_nv2, align 8
  call void @_ZN4cvc58internal4expr9NodeValue3incEv(ptr noundef nonnull align 8 dereferenceable(16) %1)
  ret void
}

; Function Attrs: mustprogress nounwind uwtable
define linkonce_odr hidden noundef i32 @_ZN4cvc58internal4expr9NodeValue11dKindToKindEj(i32 noundef %d) #5 comdat align 2 {
entry:
  %d.addr = alloca i32, align 4
  store i32 %d, ptr %d.addr, align 4
  %0 = load i32, ptr %d.addr, align 4
  %cmp = icmp eq i32 %0, 1023
  br i1 %cmp, label %cond.true, label %cond.false

cond.true:                                        ; preds = %entry
  br label %cond.end

cond.false:                                       ; preds = %entry
  %1 = load i32, ptr %d.addr, align 4
  br label %cond.end

cond.end:                                         ; preds = %cond.false, %cond.true
  %cond = phi i32 [ -1, %cond.true ], [ %1, %cond.false ]
  ret i32 %cond
}

; Function Attrs: mustprogress uwtable
define hidden void @_ZN4cvc58internal11NodeBuilder13constructNodeEv(ptr noalias sret(%"class.cvc5::internal::NodeTemplate") align 8 %agg.result, ptr noundef nonnull align 8 dereferenceable(116) %this) #4 align 2 personality ptr @__gxx_personality_v0 {
entry:
  %result.ptr = alloca ptr, align 8
  %this.addr = alloca ptr, align 8
  %nrvo = alloca i1, align 1
  %agg.tmp = alloca %"class.cvc5::internal::NodeTemplate.0", align 8
  %exn.slot = alloca ptr, align 8
  %ehselector.slot = alloca i32, align 4
  store ptr %agg.result, ptr %result.ptr, align 8
  store ptr %this, ptr %this.addr, align 8
  %this1 = load ptr, ptr %this.addr, align 8
  store i1 false, ptr %nrvo, align 1
  %call = call noundef ptr @_ZN4cvc58internal11NodeBuilder11constructNVEv(ptr noundef nonnull align 8 dereferenceable(116) %this1)
  call void @_ZN4cvc58internal12NodeTemplateILb1EEC2EPKNS0_4expr9NodeValueE(ptr noundef nonnull align 8 dereferenceable(8) %agg.result, ptr noundef %call)
  invoke void @_ZN4cvc58internal12NodeTemplateILb0EEC2ERKNS1_ILb1EEE(ptr noundef nonnull align 8 dereferenceable(8) %agg.tmp, ptr noundef nonnull align 8 dereferenceable(8) %agg.result)
          to label %invoke.cont unwind label %lpad

invoke.cont:                                      ; preds = %entry
  invoke void @_ZNK4cvc58internal11NodeBuilder14maybeCheckTypeENS0_12NodeTemplateILb0EEE(ptr noundef nonnull align 8 dereferenceable(116) %this1, ptr noundef %agg.tmp)
          to label %invoke.cont3 unwind label %lpad2

invoke.cont3:                                     ; preds = %invoke.cont
  call void @_ZN4cvc58internal12NodeTemplateILb0EED2Ev(ptr noundef nonnull align 8 dereferenceable(8) %agg.tmp) #3
  store i1 true, ptr %nrvo, align 1
  %nrvo.val = load i1, ptr %nrvo, align 1
  br i1 %nrvo.val, label %nrvo.skipdtor, label %nrvo.unused

lpad:                                             ; preds = %entry
  %0 = landingpad { ptr, i32 }
          cleanup
  %1 = extractvalue { ptr, i32 } %0, 0
  store ptr %1, ptr %exn.slot, align 8
  %2 = extractvalue { ptr, i32 } %0, 1
  store i32 %2, ptr %ehselector.slot, align 4
  br label %ehcleanup

lpad2:                                            ; preds = %invoke.cont
  %3 = landingpad { ptr, i32 }
          cleanup
  %4 = extractvalue { ptr, i32 } %3, 0
  store ptr %4, ptr %exn.slot, align 8
  %5 = extractvalue { ptr, i32 } %3, 1
  store i32 %5, ptr %ehselector.slot, align 4
  call void @_ZN4cvc58internal12NodeTemplateILb0EED2Ev(ptr noundef nonnull align 8 dereferenceable(8) %agg.tmp) #3
  br label %ehcleanup

nrvo.unused:                                      ; preds = %invoke.cont3
  call void @_ZN4cvc58internal12NodeTemplateILb1EED2Ev(ptr noundef nonnull align 8 dereferenceable(8) %agg.result) #3
  br label %nrvo.skipdtor

nrvo.skipdtor:                                    ; preds = %nrvo.unused, %invoke.cont3
  ret void

ehcleanup:                                        ; preds = %lpad2, %lpad
  call void @_ZN4cvc58internal12NodeTemplateILb1EED2Ev(ptr noundef nonnull align 8 dereferenceable(8) %agg.result) #3
  br label %eh.resume

eh.resume:                                        ; preds = %ehcleanup
  %exn = load ptr, ptr %exn.slot, align 8
  %sel = load i32, ptr %ehselector.slot, align 4
  %lpad.val = insertvalue { ptr, i32 } poison, ptr %exn, 0
  %lpad.val4 = insertvalue { ptr, i32 } %lpad.val, i32 %sel, 1
  resume { ptr, i32 } %lpad.val4
}

; Function Attrs: mustprogress uwtable
define linkonce_odr hidden noundef i32 @_ZNK4cvc58internal4expr9NodeValue7getKindEv(ptr noundef nonnull align 8 dereferenceable(16) %this) #4 comdat align 2 {
entry:
  %this.addr = alloca ptr, align 8
  store ptr %this, ptr %this.addr, align 8
  %this1 = load ptr, ptr %this.addr, align 8
  %d_kind = getelementptr inbounds %"class.cvc5::internal::expr::NodeValue", ptr %this1, i32 0, i32 1
  %bf.load = load i16, ptr %d_kind, align 8
  %bf.clear = and i16 %bf.load, 1023
  %bf.cast = zext i16 %bf.clear to i32
  %call = call noundef i32 @_ZN4cvc58internal4expr9NodeValue11dKindToKindEj(i32 noundef %bf.cast)
  ret i32 %call
}

; Function Attrs: mustprogress nounwind uwtable
define linkonce_odr hidden void @_ZN4cvc58internal12NodeTemplateILb0EED2Ev(ptr noundef nonnull align 8 dereferenceable(8) %this) unnamed_addr #5 comdat align 2 {
entry:
  %this.addr = alloca ptr, align 8
  store ptr %this, ptr %this.addr, align 8
  ret void
}

; Function Attrs: mustprogress nounwind uwtable
define linkonce_odr hidden void @_ZN4cvc58internal12NodeTemplateILb0EEC2ERKNS1_ILb1EEE(ptr noundef nonnull align 8 dereferenceable(8) %this, ptr noundef nonnull align 8 dereferenceable(8) %e) unnamed_addr #5 comdat align 2 {
entry:
  %this.addr = alloca ptr, align 8
  %e.addr = alloca ptr, align 8
  store ptr %this, ptr %this.addr, align 8
  store ptr %e, ptr %e.addr, align 8
  %this1 = load ptr, ptr %this.addr, align 8
  %0 = load ptr, ptr %e.addr, align 8
  %d_nv = getelementptr inbounds %"class.cvc5::internal::NodeTemplate", ptr %0, i32 0, i32 0
  %1 = load ptr, ptr %d_nv, align 8
  %d_nv2 = getelementptr inbounds %"class.cvc5::internal::NodeTemplate.0", ptr %this1, i32 0, i32 0
  store ptr %1, ptr %d_nv2, align 8
  ret void
}

; Function Attrs: mustprogress nounwind uwtable
define linkonce_odr hidden noundef i32 @_ZN4cvc58internal4expr9NodeValue11kindToDKindENS0_4kind6Kind_tE(i32 noundef %k) #5 comdat align 2 {
entry:
  %k.addr = alloca i32, align 4
  store i32 %k, ptr %k.addr, align 4
  %0 = load i32, ptr %k.addr, align 4
  %and = and i32 %0, 1023
  ret i32 %and
}

; Function Attrs: mustprogress uwtable
define hidden void @_ZN4cvc58internal11NodeBuildercvNS0_12NodeTemplateILb1EEEEv(ptr noalias sret(%"class.cvc5::internal::NodeTemplate") align 8 %agg.result, ptr noundef nonnull align 8 dereferenceable(116) %this) #4 align 2 {
entry:
  %result.ptr = alloca ptr, align 8
  %this.addr = alloca ptr, align 8
  store ptr %agg.result, ptr %result.ptr, align 8
  store ptr %this, ptr %this.addr, align 8
  %this1 = load ptr, ptr %this.addr, align 8
  call void @_ZN4cvc58internal11NodeBuilder13constructNodeEv(ptr sret(%"class.cvc5::internal::NodeTemplate") align 8 %agg.result, ptr noundef nonnull align 8 dereferenceable(116) %this1)
  ret void
}

; Function Attrs: mustprogress uwtable
define hidden noundef i32 @_ZNK4cvc58internal11NodeBuilder7getKindEv(ptr noundef nonnull align 8 dereferenceable(116) %this) #4 align 2 {
entry:
  %this.addr = alloca ptr, align 8
  store ptr %this, ptr %this.addr, align 8
  %this1 = load ptr, ptr %this.addr, align 8
  %d_nv = getelementptr inbounds %"class.cvc5::internal::NodeBuilder", ptr %this1, i32 0, i32 2
  %0 = load ptr, ptr %d_nv, align 8
  %call = call noundef i32 @_ZNK4cvc58internal4expr9NodeValue7getKindEv(ptr noundef nonnull align 8 dereferenceable(16) %0)
  ret i32 %call
}

; Function Attrs: mustprogress uwtable
define hidden noundef nonnull align 8 dereferenceable(116) ptr @_ZN4cvc58internal11NodeBuilder10collapseToENS0_4kind6Kind_tE(ptr noundef nonnull align 8 dereferenceable(116) %this, i32 noundef %k) #4 align 2 personality ptr @__gxx_personality_v0 {
entry:
  %retval = alloca ptr, align 8
  %this.addr = alloca ptr, align 8
  %k.addr = alloca i32, align 4
  %n = alloca %"class.cvc5::internal::NodeTemplate", align 8
  %exn.slot = alloca ptr, align 8
  %ehselector.slot = alloca i32, align 4
  %agg.tmp = alloca %"class.cvc5::internal::NodeTemplate.0", align 8
  store ptr %this, ptr %this.addr, align 8
  store i32 %k, ptr %k.addr, align 4
  %this1 = load ptr, ptr %this.addr, align 8
  %call = call noundef i32 @_ZNK4cvc58internal11NodeBuilder7getKindEv(ptr noundef nonnull align 8 dereferenceable(116) %this1)
  %0 = load i32, ptr %k.addr, align 4
  %cmp = icmp ne i32 %call, %0
  br i1 %cmp, label %if.then, label %if.end

if.then:                                          ; preds = %entry
  call void @_ZN4cvc58internal11NodeBuildercvNS0_12NodeTemplateILb1EEEEv(ptr sret(%"class.cvc5::internal::NodeTemplate") align 8 %n, ptr noundef nonnull align 8 dereferenceable(116) %this1)
  invoke void @_ZN4cvc58internal11NodeBuilder5clearENS0_4kind6Kind_tE(ptr noundef nonnull align 8 dereferenceable(116) %this1, i32 noundef -1)
          to label %invoke.cont unwind label %lpad

invoke.cont:                                      ; preds = %if.then
  %1 = load i32, ptr %k.addr, align 4
  %call3 = invoke noundef i32 @_ZN4cvc58internal4expr9NodeValue11kindToDKindENS0_4kind6Kind_tE(i32 noundef %1)
          to label %invoke.cont2 unwind label %lpad

invoke.cont2:                                     ; preds = %invoke.cont
  %d_nv = getelementptr inbounds %"class.cvc5::internal::NodeBuilder", ptr %this1, i32 0, i32 2
  %2 = load ptr, ptr %d_nv, align 8
  %d_kind = getelementptr inbounds %"class.cvc5::internal::expr::NodeValue", ptr %2, i32 0, i32 1
  %3 = trunc i32 %call3 to i16
  %bf.load = load i16, ptr %d_kind, align 8
  %bf.value = and i16 %3, 1023
  %bf.clear = and i16 %bf.load, -1024
  %bf.set = or i16 %bf.clear, %bf.value
  store i16 %bf.set, ptr %d_kind, align 8
  %d_nv4 = getelementptr inbounds %"class.cvc5::internal::NodeBuilder", ptr %this1, i32 0, i32 2
  %4 = load ptr, ptr %d_nv4, align 8
  %bf.load5 = load i64, ptr %4, align 8
  %bf.clear6 = and i64 %bf.load5, -1099511627776
  %bf.set7 = or i64 %bf.clear6, 1
  store i64 %bf.set7, ptr %4, align 8
  invoke void @_ZN4cvc58internal12NodeTemplateILb0EEC2ERKNS1_ILb1EEE(ptr noundef nonnull align 8 dereferenceable(8) %agg.tmp, ptr noundef nonnull align 8 dereferenceable(8) %n)
          to label %invoke.cont8 unwind label %lpad

invoke.cont8:                                     ; preds = %invoke.cont2
  %call11 = invoke noundef nonnull align 8 dereferenceable(116) ptr @_ZN4cvc58internal11NodeBuilder6appendENS0_12NodeTemplateILb0EEE(ptr noundef nonnull align 8 dereferenceable(116) %this1, ptr noundef %agg.tmp)
          to label %invoke.cont10 unwind label %lpad9

invoke.cont10:                                    ; preds = %invoke.cont8
  store ptr %call11, ptr %retval, align 8
  call void @_ZN4cvc58internal12NodeTemplateILb0EED2Ev(ptr noundef nonnull align 8 dereferenceable(8) %agg.tmp) #3
  call void @_ZN4cvc58internal12NodeTemplateILb1EED2Ev(ptr noundef nonnull align 8 dereferenceable(8) %n) #3
  br label %return

lpad:                                             ; preds = %invoke.cont2, %invoke.cont, %if.then
  %5 = landingpad { ptr, i32 }
          cleanup
  %6 = extractvalue { ptr, i32 } %5, 0
  store ptr %6, ptr %exn.slot, align 8
  %7 = extractvalue { ptr, i32 } %5, 1
  store i32 %7, ptr %ehselector.slot, align 4
  br label %ehcleanup

lpad9:                                            ; preds = %invoke.cont8
  %8 = landingpad { ptr, i32 }
          cleanup
  %9 = extractvalue { ptr, i32 } %8, 0
  store ptr %9, ptr %exn.slot, align 8
  %10 = extractvalue { ptr, i32 } %8, 1
  store i32 %10, ptr %ehselector.slot, align 4
  call void @_ZN4cvc58internal12NodeTemplateILb0EED2Ev(ptr noundef nonnull align 8 dereferenceable(8) %agg.tmp) #3
  br label %ehcleanup

ehcleanup:                                        ; preds = %lpad9, %lpad
  call void @_ZN4cvc58internal12NodeTemplateILb1EED2Ev(ptr noundef nonnull align 8 dereferenceable(8) %n) #3
  br label %eh.resume

if.end:                                           ; preds = %entry
  store ptr %this1, ptr %retval, align 8
  br label %return

return:                                           ; preds = %if.end, %invoke.cont10
  %11 = load ptr, ptr %retval, align 8
  ret ptr %11

eh.resume:                                        ; preds = %ehcleanup
  %exn = load ptr, ptr %exn.slot, align 8
  %sel = load i32, ptr %ehselector.slot, align 4
  %lpad.val = insertvalue { ptr, i32 } poison, ptr %exn, 0
  %lpad.val12 = insertvalue { ptr, i32 } %lpad.val, i32 %sel, 1
  resume { ptr, i32 } %lpad.val12
}