; Function Attrs: mustprogress uwtable
define hidden noundef nonnull align 8 dereferenceable(116) ptr @_ZN4cvc58internal11NodeBuilder10collapseToENS0_4kind6Kind_tE(ptr noundef nonnull returned align 8 dereferenceable(116) %this, i32 noundef %k) local_unnamed_addr #3 align 2 personality ptr @__gxx_personality_v0 {
entry:
  %n = alloca %"class.cvc5::internal::NodeTemplate", align 8
  %agg.tmp = alloca %"class.cvc5::internal::NodeTemplate.0", align 8
  %d_nv.i = getelementptr inbounds i8, ptr %this, i64 96
  %0 = load ptr, ptr %d_nv.i, align 8
  %d_kind.i.i = getelementptr inbounds i8, ptr %0, i64 8
  %bf.load.i.i = load i16, ptr %d_kind.i.i, align 8
  %bf.clear.i.i = and i16 %bf.load.i.i, 1023
  %bf.cast.i.i = zext nneg i16 %bf.clear.i.i to i32
  %cmp.i.i.i = icmp eq i16 %bf.clear.i.i, 1023
  %cond.i.i.i = select i1 %cmp.i.i.i, i32 -1, i32 %bf.cast.i.i
  %cmp.not = icmp eq i32 %cond.i.i.i, %k
  br i1 %cmp.not, label %return, label %if.then

if.then:                                          ; preds = %entry
  tail call void @llvm.experimental.noalias.scope.decl(metadata !40)
  tail call void @llvm.experimental.noalias.scope.decl(metadata !43)
  %call.i.i = tail call noundef ptr @_ZN4cvc58internal11NodeBuilder11constructNVEv(ptr noundef nonnull align 8 dereferenceable(116) %this), !noalias !46
  store ptr %call.i.i, ptr %n, align 8, !alias.scope !46
  %bf.load.i.i.i.i = load i64, ptr %call.i.i, align 8, !noalias !46
  %bf.lshr.i.i.i.i = lshr i64 %bf.load.i.i.i.i, 40
  %1 = trunc i64 %bf.lshr.i.i.i.i to i32
  %bf.cast.i.i.i.i = and i32 %1, 1048575
  %cmp.i.i.i.i = icmp ult i32 %bf.cast.i.i.i.i, 1048574
  br i1 %cmp.i.i.i.i, label %if.then.i.i.i.i, label %if.else.i.i.i.i

if.then.i.i.i.i:                                  ; preds = %if.then
  %bf.value.i.i.i.i = add i64 %bf.load.i.i.i.i, 1099511627776
  %bf.shl.i.i.i.i = and i64 %bf.value.i.i.i.i, 1152920405095219200
  %bf.clear7.i.i.i.i = and i64 %bf.load.i.i.i.i, -1152920405095219201
  %bf.set.i.i.i.i = or disjoint i64 %bf.shl.i.i.i.i, %bf.clear7.i.i.i.i
  store i64 %bf.set.i.i.i.i, ptr %call.i.i, align 8, !noalias !46
  br label %_ZN4cvc58internal11NodeBuildercvNS0_12NodeTemplateILb1EEEEv.exit

if.else.i.i.i.i:                                  ; preds = %if.then
  %cmp12.i.i.i.i = icmp eq i32 %bf.cast.i.i.i.i, 1048574
  br i1 %cmp12.i.i.i.i, label %if.then13.i.i.i.i, label %_ZN4cvc58internal11NodeBuildercvNS0_12NodeTemplateILb1EEEEv.exit

if.then13.i.i.i.i:                                ; preds = %if.else.i.i.i.i
  %bf.set23.i.i.i.i = or i64 %bf.load.i.i.i.i, 1152920405095219200
  store i64 %bf.set23.i.i.i.i, ptr %call.i.i, align 8, !noalias !46
  tail call void @_ZN4cvc58internal4expr9NodeValue20markRefCountMaxedOutEv(ptr noundef nonnull align 8 dereferenceable(16) %call.i.i), !noalias !46
  br label %_ZN4cvc58internal11NodeBuildercvNS0_12NodeTemplateILb1EEEEv.exit

_ZN4cvc58internal11NodeBuildercvNS0_12NodeTemplateILb1EEEEv.exit: ; preds = %if.then.i.i.i.i, %if.else.i.i.i.i, %if.then13.i.i.i.i
  invoke void @_ZN4cvc58internal11NodeBuilder5clearENS0_4kind6Kind_tE(ptr noundef nonnull align 8 dereferenceable(116) %this, i32 noundef -1)
          to label %invoke.cont unwind label %lpad

invoke.cont:                                      ; preds = %_ZN4cvc58internal11NodeBuildercvNS0_12NodeTemplateILb1EEEEv.exit
  %2 = load ptr, ptr %d_nv.i, align 8
  %d_kind = getelementptr inbounds i8, ptr %2, i64 8
  %3 = trunc i32 %k to i16
  %4 = and i16 %3, 1023
  %bf.load = load i16, ptr %d_kind, align 8
  %bf.clear = and i16 %bf.load, -1024
  %bf.set = or disjoint i16 %bf.clear, %4
  store i16 %bf.set, ptr %d_kind, align 8
  %5 = load ptr, ptr %d_nv.i, align 8
  %bf.load5 = load i64, ptr %5, align 8
  %bf.clear6 = and i64 %bf.load5, -1099511627776
  %bf.set7 = or disjoint i64 %bf.clear6, 1
  store i64 %bf.set7, ptr %5, align 8
  store ptr %call.i.i, ptr %agg.tmp, align 8
  %call11 = invoke noundef nonnull align 8 dereferenceable(116) ptr @_ZN4cvc58internal11NodeBuilder6appendENS0_12NodeTemplateILb0EEE(ptr noundef nonnull align 8 dereferenceable(116) %this, ptr noundef nonnull %agg.tmp)
          to label %invoke.cont10 unwind label %lpad9

invoke.cont10:                                    ; preds = %invoke.cont
  %bf.load.i.i3 = load i64, ptr %call.i.i, align 8
  %6 = and i64 %bf.load.i.i3, 1152920405095219200
  %cmp.not.i.i = icmp eq i64 %6, 1152920405095219200
  br i1 %cmp.not.i.i, label %return, label %if.then.i.i

if.then.i.i:                                      ; preds = %invoke.cont10
  %bf.value.i.i = add i64 %bf.load.i.i3, 1152920405095219200
  %bf.shl.i.i = and i64 %bf.value.i.i, 1152920405095219200
  %bf.clear7.i.i = and i64 %bf.load.i.i3, -1152920405095219201
  %bf.set.i.i = or disjoint i64 %bf.shl.i.i, %bf.clear7.i.i
  store i64 %bf.set.i.i, ptr %call.i.i, align 8
  %cmp12.i.i = icmp eq i64 %bf.shl.i.i, 0
  br i1 %cmp12.i.i, label %if.then13.i.i, label %return

if.then13.i.i:                                    ; preds = %if.then.i.i
  invoke void @_ZN4cvc58internal4expr9NodeValue15markForDeletionEv(ptr noundef nonnull align 8 dereferenceable(16) %call.i.i)
          to label %return unwind label %terminate.lpad.i

terminate.lpad.i:                                 ; preds = %if.then13.i.i
  %7 = landingpad { ptr, i32 }
          catch ptr null
  %8 = extractvalue { ptr, i32 } %7, 0
  tail call void @__clang_call_terminate(ptr %8) #24
  unreachable

lpad:                                             ; preds = %_ZN4cvc58internal11NodeBuildercvNS0_12NodeTemplateILb1EEEEv.exit
  %9 = landingpad { ptr, i32 }
          cleanup
  br label %ehcleanup

lpad9:                                            ; preds = %invoke.cont
  %10 = landingpad { ptr, i32 }
          cleanup
  br label %ehcleanup

ehcleanup:                                        ; preds = %lpad9, %lpad
  %.pn = phi { ptr, i32 } [ %10, %lpad9 ], [ %9, %lpad ]
  call void @_ZN4cvc58internal12NodeTemplateILb1EED2Ev(ptr noundef nonnull align 8 dereferenceable(8) %n) #23
  resume { ptr, i32 } %.pn

return:                                           ; preds = %if.then13.i.i, %if.then.i.i, %invoke.cont10, %entry
  ret ptr %this
}